; Function Attrs: nounwind uwtable
define noalias noundef ptr @Gia_ManTransferFrames(ptr noundef readonly captures(none) %0, ptr noundef readonly captures(none) %1, i32 noundef %2, ptr readnone captures(none) %3, ptr noundef readonly captures(none) %4) local_unnamed_addr #0 {
  %6 = tail call noalias dereferenceable_or_null(16) ptr @malloc(i64 noundef 16) #16
  %7 = getelementptr inbounds nuw i8, ptr %6, i64 4
  store i32 0, ptr %7, align 4, !tbaa !28
  store i32 100, ptr %6, align 8, !tbaa !33
  %8 = tail call noalias dereferenceable_or_null(400) ptr @malloc(i64 noundef 400) #16
  %9 = getelementptr inbounds nuw i8, ptr %6, i64 8
  store ptr %8, ptr %9, align 8, !tbaa !29
  %10 = getelementptr i8, ptr %4, i64 8
  %11 = getelementptr i8, ptr %4, i64 4
  %.val2326 = load i32, ptr %11, align 4, !tbaa !28
  %12 = icmp sgt i32 %.val2326, 0
  br i1 %12, label %.lr.ph29, label %.critedge

.lr.ph29:                                         ; preds = %5
  %13 = getelementptr i8, ptr %0, i64 32
  %14 = icmp sgt i32 %2, 0
  %15 = getelementptr i8, ptr %0, i64 24
  %16 = getelementptr i8, ptr %0, i64 400
  %17 = getelementptr i8, ptr %1, i64 32
  br i1 %14, label %.lr.ph29.split.us, label %.critedge

.lr.ph29.split.us:                                ; preds = %.lr.ph29, %._crit_edge.us
  %.pre.i.i.us33 = phi ptr [ %.pre.i.i.us35, %._crit_edge.us ], [ %8, %.lr.ph29 ]
  %18 = phi ptr [ %64, %._crit_edge.us ], [ %8, %.lr.ph29 ]
  %indvars.iv = phi i64 [ %indvars.iv.next, %._crit_edge.us ], [ 0, %.lr.ph29 ]
  %.val22.us = load ptr, ptr %13, align 8, !tbaa !3
  %.not.us = icmp eq ptr %.val22.us, null
  br i1 %.not.us, label %.critedge, label %.preheader.us

19:                                               ; preds = %.preheader.us, %Vec_IntPushUnique.exit.us
  %20 = phi ptr [ %.pre.i.i.us33, %.preheader.us ], [ %.pre.i.i.us35, %Vec_IntPushUnique.exit.us ]
  %21 = phi ptr [ %18, %.preheader.us ], [ %64, %Vec_IntPushUnique.exit.us ]
  %.025.us = phi i32 [ 0, %.preheader.us ], [ %65, %Vec_IntPushUnique.exit.us ]
  %.val4.i.us = load i32, ptr %15, align 8, !tbaa !34
  %22 = mul nsw i32 %.val4.i.us, %.025.us
  %.val.i.us = load ptr, ptr %13, align 8, !tbaa !3
  %23 = ptrtoint ptr %.val.i.us to i64
  %24 = sub i64 %70, %23
  %25 = sdiv exact i64 %24, 12
  %26 = trunc i64 %25 to i32
  %27 = add nsw i32 %22, %26
  %.val5.i.us = load ptr, ptr %16, align 8, !tbaa !29
  %28 = sext i32 %27 to i64
  %29 = getelementptr inbounds i32, ptr %.val5.i.us, i64 %28
  %30 = load i32, ptr %29, align 4, !tbaa !32
  %31 = ashr i32 %30, 1
  %.val.us = load ptr, ptr %17, align 8, !tbaa !3
  %32 = sext i32 %31 to i64
  %33 = getelementptr inbounds %struct.Gia_Obj_t_, ptr %.val.us, i64 %32, i32 1
  %34 = load i32, ptr %33, align 4, !tbaa !54
  switch i32 %34, label %35 [
    i32 0, label %Vec_IntPushUnique.exit.us
    i32 -1, label %Vec_IntPushUnique.exit.us
  ]

35:                                               ; preds = %19
  %36 = ashr i32 %34, 1
  %37 = load i32, ptr %7, align 4, !tbaa !28
  %38 = icmp sgt i32 %37, 0
  br i1 %38, label %.lr.ph.i.us, label %._crit_edge.i.us

.lr.ph.i.us:                                      ; preds = %35
  %wide.trip.count.i.us = zext nneg i32 %37 to i64
  br label %39

39:                                               ; preds = %43, %.lr.ph.i.us
  %indvars.iv.i.us = phi i64 [ 0, %.lr.ph.i.us ], [ %indvars.iv.next.i.us, %43 ]
  %40 = getelementptr inbounds nuw i32, ptr %21, i64 %indvars.iv.i.us
  %41 = load i32, ptr %40, align 4, !tbaa !32
  %42 = icmp eq i32 %41, %36
  br i1 %42, label %Vec_IntPushUnique.exit.us, label %43

43:                                               ; preds = %39
  %indvars.iv.next.i.us = add nuw nsw i64 %indvars.iv.i.us, 1
  %exitcond.not.i.us = icmp eq i64 %indvars.iv.next.i.us, %wide.trip.count.i.us
  br i1 %exitcond.not.i.us, label %._crit_edge.i.us, label %39, !llvm.loop !30

._crit_edge.i.us:                                 ; preds = %43, %35
  %44 = load i32, ptr %6, align 8, !tbaa !33
  %45 = icmp eq i32 %37, %44
  br i1 %45, label %46, label %Vec_IntPush.exit.i.us

46:                                               ; preds = %._crit_edge.i.us
  %47 = icmp slt i32 %37, 16
  br i1 %47, label %56, label %48

48:                                               ; preds = %46
  %49 = shl nuw nsw i32 %37, 1
  %.not9.i9.i.i.us = icmp eq ptr %20, null
  %50 = zext nneg i32 %49 to i64
  %51 = shl nuw nsw i64 %50, 2
  br i1 %.not9.i9.i.i.us, label %54, label %52

52:                                               ; preds = %48
  %53 = tail call ptr @realloc(ptr noundef nonnull %20, i64 noundef %51) #15
  br label %Vec_IntPush.exit.i.us.sink.split

54:                                               ; preds = %48
  %55 = tail call noalias ptr @malloc(i64 noundef %51) #16
  br label %Vec_IntPush.exit.i.us.sink.split

56:                                               ; preds = %46
  %.not9.i.i.i.us = icmp eq ptr %20, null
  br i1 %.not9.i.i.i.us, label %59, label %57

57:                                               ; preds = %56
  %58 = tail call dereferenceable_or_null(64) ptr @realloc(ptr noundef nonnull %20, i64 noundef 64) #15
  br label %Vec_IntPush.exit.i.us.sink.split

59:                                               ; preds = %56
  %60 = tail call noalias dereferenceable_or_null(64) ptr @malloc(i64 noundef 64) #16
  br label %Vec_IntPush.exit.i.us.sink.split

Vec_IntPush.exit.i.us.sink.split:                 ; preds = %57, %59, %52, %54
  %.sink37 = phi ptr [ %53, %52 ], [ %55, %54 ], [ %58, %57 ], [ %60, %59 ]
  %.sink = phi i32 [ %49, %52 ], [ %49, %54 ], [ 16, %57 ], [ 16, %59 ]
  store ptr %.sink37, ptr %9, align 8, !tbaa !29
  store i32 %.sink, ptr %6, align 8, !tbaa !33
  br label %Vec_IntPush.exit.i.us

Vec_IntPush.exit.i.us:                            ; preds = %Vec_IntPush.exit.i.us.sink.split, %._crit_edge.i.us
  %.pre.i.i.us36 = phi ptr [ %20, %._crit_edge.i.us ], [ %.sink37, %Vec_IntPush.exit.i.us.sink.split ]
  %61 = add nsw i32 %37, 1
  store i32 %61, ptr %7, align 4, !tbaa !28
  %62 = sext i32 %37 to i64
  %63 = getelementptr inbounds i32, ptr %.pre.i.i.us36, i64 %62
  store i32 %36, ptr %63, align 4, !tbaa !32
  br label %Vec_IntPushUnique.exit.us

Vec_IntPushUnique.exit.us:                        ; preds = %39, %Vec_IntPush.exit.i.us, %19, %19
  %.pre.i.i.us35 = phi ptr [ %.pre.i.i.us36, %Vec_IntPush.exit.i.us ], [ %20, %19 ], [ %20, %19 ], [ %20, %39 ]
  %64 = phi ptr [ %.pre.i.i.us36, %Vec_IntPush.exit.i.us ], [ %21, %19 ], [ %21, %19 ], [ %21, %39 ]
  %65 = add nuw nsw i32 %.025.us, 1
  %exitcond.not = icmp eq i32 %65, %2
  br i1 %exitcond.not, label %._crit_edge.us, label %19, !llvm.loop !56

.preheader.us:                                    ; preds = %.lr.ph29.split.us
  %.val24.us = load ptr, ptr %10, align 8, !tbaa !29
  %66 = getelementptr inbounds nuw i32, ptr %.val24.us, i64 %indvars.iv
  %67 = load i32, ptr %66, align 4, !tbaa !32
  %68 = sext i32 %67 to i64
  %69 = getelementptr inbounds %struct.Gia_Obj_t_, ptr %.val22.us, i64 %68
  %70 = ptrtoint ptr %69 to i64
  br label %19

._crit_edge.us:                                   ; preds = %Vec_IntPushUnique.exit.us
  %indvars.iv.next = add nuw nsw i64 %indvars.iv, 1
  %.val23.us = load i32, ptr %11, align 4, !tbaa !28
  %71 = sext i32 %.val23.us to i64
  %72 = icmp slt i64 %indvars.iv.next, %71
  br i1 %72, label %.lr.ph29.split.us, label %.critedge, !llvm.loop !57

.critedge:                                        ; preds = %.lr.ph29.split.us, %._crit_edge.us, %.lr.ph29, %5
  ret ptr %6
}